target datalayout = "e-m:e-p270:32:32-p271:32:32-p272:64:64-i64:64-i128:128-f80:128-n8:16:32:64-S128"
target triple = "x86_64-pc-linux-gnu"

%"class.pybind11::object" = type { %"class.pybind11::handle" }
%"class.pybind11::handle" = type { ptr }
%"class.pybind11::enum_" = type { %"class.pybind11::class_", %"struct.pybind11::detail::enum_base" }
%"class.pybind11::class_" = type { %"class.pybind11::detail::generic_type" }
%"class.pybind11::detail::generic_type" = type { %"class.pybind11::object" }
%"struct.pybind11::detail::enum_base" = type { %"class.pybind11::handle", %"class.pybind11::handle" }
%"class.pybind11::class_.1" = type { %"class.pybind11::detail::generic_type" }
%"class.pybind11::class_.2" = type { %"class.pybind11::detail::generic_type" }
%"class.pybind11::class_.3" = type { %"class.pybind11::detail::generic_type" }

@.str = private unnamed_addr constant [11 x i8] c"SensorType\00", align 1
@.str.3 = private unnamed_addr constant [12 x i8] c"Sensor type\00", align 1
@.str.4 = private unnamed_addr constant [13 x i8] c"AZURE_KINECT\00", align 1
@.str.5 = private unnamed_addr constant [11 x i8] c"REAL_SENSE\00", align 1
@.str.6 = private unnamed_addr constant [18 x i8] c"RGBDVideoMetadata\00", align 1
@.str.7 = private unnamed_addr constant [21 x i8] c"RGBD Video metadata.\00", align 1
@.str.8 = private unnamed_addr constant [16 x i8] c"RGBDVideoReader\00", align 1
@.str.9 = private unnamed_addr constant [24 x i8] c"RGBD Video file reader.\00", align 1
@.str.10 = private unnamed_addr constant [11 x i8] c"RGBDSensor\00", align 1
@.str.11 = private unnamed_addr constant [45 x i8] c"Interface class for control of RGBD cameras.\00", align 1

; Function Attrs: mustprogress ssp uwtable
define hidden void @_ZN6open3d1t2io26pybind_sensor_declarationsERN8pybind117module_E(ptr noundef nonnull align 8 dereferenceable(8) %0) #3 personality ptr @__gxx_personality_v0 {
  %2 = alloca ptr, align 8
  %3 = alloca %"class.pybind11::enum_", align 8
  %4 = alloca ptr, align 8
  %5 = alloca i32, align 4
  %6 = alloca %"class.pybind11::class_.1", align 8
  %7 = alloca %"class.pybind11::handle", align 8
  %8 = alloca %"class.pybind11::class_.2", align 8
  %9 = alloca %"class.pybind11::handle", align 8
  %10 = alloca %"class.pybind11::class_.3", align 8
  %11 = alloca %"class.pybind11::handle", align 8
  store ptr %0, ptr %2, align 8, !tbaa !175
  call void @llvm.lifetime.start.p0(i64 24, ptr %3) #9
  %12 = load ptr, ptr %2, align 8, !tbaa !175
  call void @_ZN8pybind115enum_IN6open3d1t2io10SensorTypeEEC2IJA12_cEEERKNS_6handleEPKcDpRKT_(ptr noundef nonnull align 8 dereferenceable(24) %3, ptr noundef nonnull align 8 dereferenceable(8) %12, ptr noundef @.str, ptr noundef nonnull align 1 dereferenceable(12) @.str.3)
  %13 = invoke noundef nonnull align 8 dereferenceable(24) ptr @_ZN8pybind115enum_IN6open3d1t2io10SensorTypeEE5valueEPKcS4_S7_(ptr noundef nonnull align 8 dereferenceable(24) %3, ptr noundef @.str.4, i32 noundef 0, ptr noundef null)
          to label %14 unwind label %28

14:                                               ; preds = %1
  %15 = invoke noundef nonnull align 8 dereferenceable(24) ptr @_ZN8pybind115enum_IN6open3d1t2io10SensorTypeEE5valueEPKcS4_S7_(ptr noundef nonnull align 8 dereferenceable(24) %13, ptr noundef @.str.5, i32 noundef 1, ptr noundef null)
          to label %16 unwind label %28

16:                                               ; preds = %14
  call void @_ZN8pybind116objectD2Ev(ptr noundef nonnull align 8 dereferenceable(24) %3) #9
  call void @llvm.lifetime.end.p0(i64 24, ptr %3) #9
  call void @llvm.lifetime.start.p0(i64 8, ptr %6) #9
  %17 = load ptr, ptr %2, align 8, !tbaa !175
  call void @llvm.memcpy.p0.p0.i64(ptr align 8 %7, ptr align 8 %17, i64 8, i1 false)
  %18 = getelementptr inbounds nuw %"class.pybind11::handle", ptr %7, i32 0, i32 0
  %19 = load ptr, ptr %18, align 8
  call void @_ZN8pybind116class_IN6open3d1t2io17RGBDVideoMetadataEJEEC2IJA21_cEEENS_6handleEPKcDpRKT_(ptr noundef nonnull align 8 dereferenceable(8) %6, ptr %19, ptr noundef @.str.6, ptr noundef nonnull align 1 dereferenceable(21) @.str.7)
  call void @llvm.lifetime.start.p0(i64 8, ptr %8) #9
  %20 = load ptr, ptr %2, align 8, !tbaa !175
  call void @llvm.memcpy.p0.p0.i64(ptr align 8 %9, ptr align 8 %20, i64 8, i1 false)
  %21 = getelementptr inbounds nuw %"class.pybind11::handle", ptr %9, i32 0, i32 0
  %22 = load ptr, ptr %21, align 8
  invoke void @_ZN8pybind116class_IN6open3d1t2io15RGBDVideoReaderEJNS3_17PyRGBDVideoReaderESt10unique_ptrIS4_St14default_deleteIS4_EEEEC2IJA24_cEEENS_6handleEPKcDpRKT_(ptr noundef nonnull align 8 dereferenceable(8) %8, ptr %22, ptr noundef @.str.8, ptr noundef nonnull align 1 dereferenceable(24) @.str.9)
          to label %23 unwind label %32

23:                                               ; preds = %16
  call void @llvm.lifetime.start.p0(i64 8, ptr %10) #9
  %24 = load ptr, ptr %2, align 8, !tbaa !175
  call void @llvm.memcpy.p0.p0.i64(ptr align 8 %11, ptr align 8 %24, i64 8, i1 false)
  %25 = getelementptr inbounds nuw %"class.pybind11::handle", ptr %11, i32 0, i32 0
  %26 = load ptr, ptr %25, align 8
  invoke void @_ZN8pybind116class_IN6open3d1t2io10RGBDSensorEJEEC2IJA45_cEEENS_6handleEPKcDpRKT_(ptr noundef nonnull align 8 dereferenceable(8) %10, ptr %26, ptr noundef @.str.10, ptr noundef nonnull align 1 dereferenceable(45) @.str.11)
          to label %27 unwind label %36

27:                                               ; preds = %23
  call void @_ZN8pybind116objectD2Ev(ptr noundef nonnull align 8 dereferenceable(8) %10) #9
  call void @llvm.lifetime.end.p0(i64 8, ptr %10) #9
  call void @_ZN8pybind116objectD2Ev(ptr noundef nonnull align 8 dereferenceable(8) %8) #9
  call void @llvm.lifetime.end.p0(i64 8, ptr %8) #9
  call void @_ZN8pybind116objectD2Ev(ptr noundef nonnull align 8 dereferenceable(8) %6) #9
  call void @llvm.lifetime.end.p0(i64 8, ptr %6) #9
  ret void

28:                                               ; preds = %14, %1
  %29 = landingpad { ptr, i32 }
          cleanup
  %30 = extractvalue { ptr, i32 } %29, 0
  store ptr %30, ptr %4, align 8
  %31 = extractvalue { ptr, i32 } %29, 1
  store i32 %31, ptr %5, align 4
  call void @_ZN8pybind116objectD2Ev(ptr noundef nonnull align 8 dereferenceable(24) %3) #9
  call void @llvm.lifetime.end.p0(i64 24, ptr %3) #9
  br label %41

32:                                               ; preds = %16
  %33 = landingpad { ptr, i32 }
          cleanup
  %34 = extractvalue { ptr, i32 } %33, 0
  store ptr %34, ptr %4, align 8
  %35 = extractvalue { ptr, i32 } %33, 1
  store i32 %35, ptr %5, align 4
  br label %40

36:                                               ; preds = %23
  %37 = landingpad { ptr, i32 }
          cleanup
  %38 = extractvalue { ptr, i32 } %37, 0
  store ptr %38, ptr %4, align 8
  %39 = extractvalue { ptr, i32 } %37, 1
  store i32 %39, ptr %5, align 4
  call void @llvm.lifetime.end.p0(i64 8, ptr %10) #9
  call void @_ZN8pybind116objectD2Ev(ptr noundef nonnull align 8 dereferenceable(8) %8) #9
  br label %40

40:                                               ; preds = %36, %32
  call void @llvm.lifetime.end.p0(i64 8, ptr %8) #9
  call void @_ZN8pybind116objectD2Ev(ptr noundef nonnull align 8 dereferenceable(8) %6) #9
  call void @llvm.lifetime.end.p0(i64 8, ptr %6) #9
  br label %41

41:                                               ; preds = %40, %28
  %42 = load ptr, ptr %4, align 8
  %43 = load i32, ptr %5, align 4
  %44 = insertvalue { ptr, i32 } poison, ptr %42, 0
  %45 = insertvalue { ptr, i32 } %44, i32 %43, 1
  resume { ptr, i32 } %45
}