; Function Attrs: mustprogress ssp uwtable
define hidden void @_ZN6open3d1t2io26pybind_sensor_declarationsERN8pybind117module_E(ptr noundef nonnull align 8 dereferenceable(8) %0) local_unnamed_addr #5 personality ptr @__gxx_personality_v0 {
  %2 = alloca %"class.pybind11::enum_", align 8
  %3 = alloca %"class.pybind11::class_.1", align 8
  %4 = alloca %"class.pybind11::class_.2", align 8
  %5 = alloca %"class.pybind11::class_.3", align 8
  call void @llvm.lifetime.start.p0(i64 24, ptr nonnull %2) #31
  call void @_ZN8pybind115enum_IN6open3d1t2io10SensorTypeEEC2IJA12_cEEERKNS_6handleEPKcDpRKT_(ptr noundef nonnull align 8 dereferenceable(24) %2, ptr noundef nonnull align 8 dereferenceable(8) %0, ptr noundef nonnull @.str, ptr noundef nonnull align 1 dereferenceable(12) @.str.3)
  %6 = invoke noundef nonnull align 8 dereferenceable(24) ptr @_ZN8pybind115enum_IN6open3d1t2io10SensorTypeEE5valueEPKcS4_S7_(ptr noundef nonnull align 8 dereferenceable(24) %2, ptr noundef nonnull @.str.4, i32 noundef 0, ptr noundef null)
          to label %7 unwind label %56

7:                                                ; preds = %1
  %8 = invoke noundef nonnull align 8 dereferenceable(24) ptr @_ZN8pybind115enum_IN6open3d1t2io10SensorTypeEE5valueEPKcS4_S7_(ptr noundef nonnull align 8 dereferenceable(24) %6, ptr noundef nonnull @.str.5, i32 noundef 1, ptr noundef null)
          to label %9 unwind label %56

9:                                                ; preds = %7
  %10 = load ptr, ptr %2, align 8, !tbaa !162
  %.not.i.i.i = icmp eq ptr %10, null
  br i1 %.not.i.i.i, label %_ZN8pybind116objectD2Ev.exit, label %11

11:                                               ; preds = %9
  %12 = load i64, ptr %10, align 8, !tbaa !161
  %13 = and i64 %12, 2147483648
  %.not2.i.i.i = icmp eq i64 %13, 0
  br i1 %.not2.i.i.i, label %14, label %_ZN8pybind116objectD2Ev.exit

14:                                               ; preds = %11
  %15 = add nsw i64 %12, -1
  store i64 %15, ptr %10, align 8, !tbaa !161
  %16 = icmp eq i64 %15, 0
  br i1 %16, label %17, label %_ZN8pybind116objectD2Ev.exit

17:                                               ; preds = %14
  invoke void @_Py_Dealloc(ptr noundef nonnull %10)
          to label %_ZN8pybind116objectD2Ev.exit unwind label %18

18:                                               ; preds = %17
  %19 = landingpad { ptr, i32 }
          catch ptr null
  %20 = extractvalue { ptr, i32 } %19, 0
  call void @__clang_call_terminate(ptr %20) #32
  unreachable

_ZN8pybind116objectD2Ev.exit:                     ; preds = %9, %11, %14, %17
  call void @llvm.lifetime.end.p0(i64 24, ptr nonnull %2) #31
  call void @llvm.lifetime.start.p0(i64 8, ptr nonnull %3) #31
  %.sroa.02.0.copyload = load ptr, ptr %0, align 8
  call void @_ZN8pybind116class_IN6open3d1t2io17RGBDVideoMetadataEJEEC2IJA21_cEEENS_6handleEPKcDpRKT_(ptr noundef nonnull align 8 dereferenceable(8) %3, ptr %.sroa.02.0.copyload, ptr noundef nonnull @.str.6, ptr noundef nonnull align 1 dereferenceable(21) @.str.7)
  call void @llvm.lifetime.start.p0(i64 8, ptr nonnull %4) #31
  %.sroa.01.0.copyload = load ptr, ptr %0, align 8
  invoke void @_ZN8pybind116class_IN6open3d1t2io15RGBDVideoReaderEJNS3_17PyRGBDVideoReaderESt10unique_ptrIS4_St14default_deleteIS4_EEEEC2IJA24_cEEENS_6handleEPKcDpRKT_(ptr noundef nonnull align 8 dereferenceable(8) %4, ptr %.sroa.01.0.copyload, ptr noundef nonnull @.str.8, ptr noundef nonnull align 1 dereferenceable(24) @.str.9)
          to label %21 unwind label %58

21:                                               ; preds = %_ZN8pybind116objectD2Ev.exit
  call void @llvm.lifetime.start.p0(i64 8, ptr nonnull %5) #31
  %.sroa.0.0.copyload = load ptr, ptr %0, align 8
  invoke void @_ZN8pybind116class_IN6open3d1t2io10RGBDSensorEJEEC2IJA45_cEEENS_6handleEPKcDpRKT_(ptr noundef nonnull align 8 dereferenceable(8) %5, ptr %.sroa.0.0.copyload, ptr noundef nonnull @.str.10, ptr noundef nonnull align 1 dereferenceable(45) @.str.11)
          to label %22 unwind label %60

22:                                               ; preds = %21
  %23 = load ptr, ptr %5, align 8, !tbaa !162
  %.not.i.i.i11 = icmp eq ptr %23, null
  br i1 %.not.i.i.i11, label %_ZN8pybind116objectD2Ev.exit13, label %24

24:                                               ; preds = %22
  %25 = load i64, ptr %23, align 8, !tbaa !161
  %26 = and i64 %25, 2147483648
  %.not2.i.i.i12 = icmp eq i64 %26, 0
  br i1 %.not2.i.i.i12, label %27, label %_ZN8pybind116objectD2Ev.exit13

27:                                               ; preds = %24
  %28 = add nsw i64 %25, -1
  store i64 %28, ptr %23, align 8, !tbaa !161
  %29 = icmp eq i64 %28, 0
  br i1 %29, label %30, label %_ZN8pybind116objectD2Ev.exit13

30:                                               ; preds = %27
  invoke void @_Py_Dealloc(ptr noundef nonnull %23)
          to label %_ZN8pybind116objectD2Ev.exit13 unwind label %31

31:                                               ; preds = %30
  %32 = landingpad { ptr, i32 }
          catch ptr null
  %33 = extractvalue { ptr, i32 } %32, 0
  call void @__clang_call_terminate(ptr %33) #32
  unreachable

_ZN8pybind116objectD2Ev.exit13:                   ; preds = %22, %24, %27, %30
  call void @llvm.lifetime.end.p0(i64 8, ptr nonnull %5) #31
  %34 = load ptr, ptr %4, align 8, !tbaa !162
  %.not.i.i.i14 = icmp eq ptr %34, null
  br i1 %.not.i.i.i14, label %_ZN8pybind116objectD2Ev.exit16, label %35

35:                                               ; preds = %_ZN8pybind116objectD2Ev.exit13
  %36 = load i64, ptr %34, align 8, !tbaa !161
  %37 = and i64 %36, 2147483648
  %.not2.i.i.i15 = icmp eq i64 %37, 0
  br i1 %.not2.i.i.i15, label %38, label %_ZN8pybind116objectD2Ev.exit16

38:                                               ; preds = %35
  %39 = add nsw i64 %36, -1
  store i64 %39, ptr %34, align 8, !tbaa !161
  %40 = icmp eq i64 %39, 0
  br i1 %40, label %41, label %_ZN8pybind116objectD2Ev.exit16

41:                                               ; preds = %38
  invoke void @_Py_Dealloc(ptr noundef nonnull %34)
          to label %_ZN8pybind116objectD2Ev.exit16 unwind label %42

42:                                               ; preds = %41
  %43 = landingpad { ptr, i32 }
          catch ptr null
  %44 = extractvalue { ptr, i32 } %43, 0
  call void @__clang_call_terminate(ptr %44) #32
  unreachable

_ZN8pybind116objectD2Ev.exit16:                   ; preds = %_ZN8pybind116objectD2Ev.exit13, %35, %38, %41
  call void @llvm.lifetime.end.p0(i64 8, ptr nonnull %4) #31
  %45 = load ptr, ptr %3, align 8, !tbaa !162
  %.not.i.i.i17 = icmp eq ptr %45, null
  br i1 %.not.i.i.i17, label %_ZN8pybind116objectD2Ev.exit19, label %46

46:                                               ; preds = %_ZN8pybind116objectD2Ev.exit16
  %47 = load i64, ptr %45, align 8, !tbaa !161
  %48 = and i64 %47, 2147483648
  %.not2.i.i.i18 = icmp eq i64 %48, 0
  br i1 %.not2.i.i.i18, label %49, label %_ZN8pybind116objectD2Ev.exit19

49:                                               ; preds = %46
  %50 = add nsw i64 %47, -1
  store i64 %50, ptr %45, align 8, !tbaa !161
  %51 = icmp eq i64 %50, 0
  br i1 %51, label %52, label %_ZN8pybind116objectD2Ev.exit19

52:                                               ; preds = %49
  invoke void @_Py_Dealloc(ptr noundef nonnull %45)
          to label %_ZN8pybind116objectD2Ev.exit19 unwind label %53

53:                                               ; preds = %52
  %54 = landingpad { ptr, i32 }
          catch ptr null
  %55 = extractvalue { ptr, i32 } %54, 0
  call void @__clang_call_terminate(ptr %55) #32
  unreachable

_ZN8pybind116objectD2Ev.exit19:                   ; preds = %_ZN8pybind116objectD2Ev.exit16, %46, %49, %52
  call void @llvm.lifetime.end.p0(i64 8, ptr nonnull %3) #31
  ret void

56:                                               ; preds = %7, %1
  %57 = landingpad { ptr, i32 }
          cleanup
  call void @_ZN8pybind116objectD2Ev(ptr noundef nonnull align 8 dereferenceable(24) %2) #31
  call void @llvm.lifetime.end.p0(i64 24, ptr nonnull %2) #31
  br label %63

58:                                               ; preds = %_ZN8pybind116objectD2Ev.exit
  %59 = landingpad { ptr, i32 }
          cleanup
  br label %62

60:                                               ; preds = %21
  %61 = landingpad { ptr, i32 }
          cleanup
  call void @llvm.lifetime.end.p0(i64 8, ptr nonnull %5) #31
  call void @_ZN8pybind116objectD2Ev(ptr noundef nonnull align 8 dereferenceable(8) %4) #31
  br label %62

62:                                               ; preds = %60, %58
  %.pn = phi { ptr, i32 } [ %61, %60 ], [ %59, %58 ]
  call void @llvm.lifetime.end.p0(i64 8, ptr nonnull %4) #31
  call void @_ZN8pybind116objectD2Ev(ptr noundef nonnull align 8 dereferenceable(8) %3) #31
  call void @llvm.lifetime.end.p0(i64 8, ptr nonnull %3) #31
  br label %63

63:                                               ; preds = %62, %56
  %.pn.pn = phi { ptr, i32 } [ %.pn, %62 ], [ %57, %56 ]
  resume { ptr, i32 } %.pn.pn
}